target datalayout = "e-m:e-p270:32:32-p271:32:32-p272:64:64-i64:64-i128:128-f80:128-n8:16:32:64-S128"
target triple = "x86_64-pc-linux-gnu"

%struct.curl_version_info_data = type { i32, ptr, i32, ptr, i32, ptr, i64, ptr, ptr, ptr, i32, ptr, i32, ptr, i32, ptr, i32, ptr, ptr, ptr, ptr, i32, ptr, ptr, ptr, ptr, ptr }

@tool_stderr = external global ptr, align 8
@.str.14 = private unnamed_addr constant [67 x i8] c"WARNING: this libcurl is Debug-enabled, do not use in production\0A\0A\00", align 1
@.str.15 = private unnamed_addr constant [42 x i8] c"curl 8.12.0-DEV (x86_64-pc-linux-gnu) %s\0A\00", align 1
@.str.16 = private unnamed_addr constant [18 x i8] c"Release-Date: %s\0A\00", align 1
@.str.17 = private unnamed_addr constant [13 x i8] c"[unreleased]\00", align 1
@built_in_protos = external global ptr, align 8
@.str.18 = private unnamed_addr constant [5 x i8] c"ipfs\00", align 1
@.str.19 = private unnamed_addr constant [5 x i8] c"http\00", align 1
@.str.20 = private unnamed_addr constant [11 x i8] c"Protocols:\00", align 1
@.str.21 = private unnamed_addr constant [5 x i8] c"rtmp\00", align 1
@.str.22 = private unnamed_addr constant [4 x i8] c" %s\00", align 1
@.str.23 = private unnamed_addr constant [11 x i8] c" ipfs ipns\00", align 1
@.str.24 = private unnamed_addr constant [1 x i8] zeroinitializer, align 1
@feature_names = external global ptr, align 8
@feature_count = external global i64, align 8
@.str.25 = private unnamed_addr constant [10 x i8] c"Features:\00", align 1
@.str.26 = private unnamed_addr constant [11 x i8] c"8.12.0-DEV\00", align 1
@curlinfo = external global ptr, align 8
@.str.27 = private unnamed_addr constant [81 x i8] c"WARNING: curl and libcurl versions do not match. Functionality may be affected.\0A\00", align 1
@.str.88 = private unnamed_addr constant [6 x i8] c"debug\00", align 1

; Function Attrs: nounwind uwtable
define internal zeroext i1 @is_debug() #0 {
  %1 = alloca i1, align 1
  %2 = alloca ptr, align 8
  %3 = alloca i32, align 4
  call void @llvm.lifetime.start.p0(i64 8, ptr %2) #9
  %4 = load ptr, ptr @feature_names, align 8, !tbaa !54
  store ptr %4, ptr %2, align 8, !tbaa !54
  br label %5

5:                                                ; preds = %16, %0
  %6 = load ptr, ptr %2, align 8, !tbaa !54
  %7 = load ptr, ptr %6, align 8, !tbaa !9
  %8 = icmp ne ptr %7, null
  br i1 %8, label %9, label %19

9:                                                ; preds = %5
  %10 = load ptr, ptr %2, align 8, !tbaa !54
  %11 = load ptr, ptr %10, align 8, !tbaa !9
  %12 = call i32 @curl_strequal(ptr noundef @.str.88, ptr noundef %11)
  %13 = icmp ne i32 %12, 0
  br i1 %13, label %14, label %15

14:                                               ; preds = %9
  store i1 true, ptr %1, align 1
  store i32 1, ptr %3, align 4
  br label %20

15:                                               ; preds = %9
  br label %16

16:                                               ; preds = %15
  %17 = load ptr, ptr %2, align 8, !tbaa !54
  %18 = getelementptr inbounds nuw ptr, ptr %17, i32 1
  store ptr %18, ptr %2, align 8, !tbaa !54
  br label %5, !llvm.loop !63

19:                                               ; preds = %5
  store i1 false, ptr %1, align 1
  store i32 1, ptr %3, align 4
  br label %20

20:                                               ; preds = %19, %14
  call void @llvm.lifetime.end.p0(i64 8, ptr %2) #9
  %21 = load i1, ptr %1, align 1
  ret i1 %21
}

; Function Attrs: nounwind uwtable
define dso_local void @tool_version_info() #0 {
  %1 = alloca ptr, align 8
  %2 = alloca ptr, align 8
  %3 = alloca ptr, align 8
  %4 = alloca i64, align 8
  call void @llvm.lifetime.start.p0(i64 8, ptr %1) #9
  %5 = call zeroext i1 @is_debug()
  br i1 %5, label %6, label %9

6:                                                ; preds = %0
  %7 = load ptr, ptr @tool_stderr, align 8, !tbaa !23
  %8 = call i32 (ptr, ptr, ...) @curl_mfprintf(ptr noundef %7, ptr noundef @.str.14)
  br label %9

9:                                                ; preds = %6, %0
  %10 = call ptr @curl_version()
  %11 = call i32 (ptr, ...) @curl_mprintf(ptr noundef @.str.15, ptr noundef %10)
  %12 = call i32 (ptr, ...) @curl_mprintf(ptr noundef @.str.16, ptr noundef @.str.17)
  %13 = load ptr, ptr @built_in_protos, align 8, !tbaa !54
  %14 = getelementptr inbounds ptr, ptr %13, i64 0
  %15 = load ptr, ptr %14, align 8, !tbaa !9
  %16 = icmp ne ptr %15, null
  br i1 %16, label %17, label %88

17:                                               ; preds = %9
  call void @llvm.lifetime.start.p0(i64 8, ptr %2) #9
  store ptr null, ptr %2, align 8, !tbaa !9
  %18 = load ptr, ptr @built_in_protos, align 8, !tbaa !54
  store ptr %18, ptr %1, align 8, !tbaa !54
  br label %19

19:                                               ; preds = %46, %17
  %20 = load ptr, ptr %1, align 8, !tbaa !54
  %21 = load ptr, ptr %20, align 8, !tbaa !9
  %22 = icmp ne ptr %21, null
  br i1 %22, label %23, label %49

23:                                               ; preds = %19
  %24 = load ptr, ptr %2, align 8, !tbaa !9
  %25 = icmp ne ptr %24, null
  br i1 %25, label %26, label %36

26:                                               ; preds = %23
  %27 = load ptr, ptr %1, align 8, !tbaa !54
  %28 = load ptr, ptr %27, align 8, !tbaa !9
  %29 = call i32 @strcmp(ptr noundef %28, ptr noundef @.str.18) #8
  %30 = icmp slt i32 %29, 0
  br i1 %30, label %31, label %34

31:                                               ; preds = %26
  %32 = load ptr, ptr %1, align 8, !tbaa !54
  %33 = load ptr, ptr %32, align 8, !tbaa !9
  store ptr %33, ptr %2, align 8, !tbaa !9
  br label %35

34:                                               ; preds = %26
  br label %49

35:                                               ; preds = %31
  br label %45

36:                                               ; preds = %23
  %37 = load ptr, ptr %1, align 8, !tbaa !54
  %38 = load ptr, ptr %37, align 8, !tbaa !9
  %39 = call i32 @strcmp(ptr noundef %38, ptr noundef @.str.19) #8
  %40 = icmp ne i32 %39, 0
  br i1 %40, label %44, label %41

41:                                               ; preds = %36
  %42 = load ptr, ptr %1, align 8, !tbaa !54
  %43 = load ptr, ptr %42, align 8, !tbaa !9
  store ptr %43, ptr %2, align 8, !tbaa !9
  br label %44

44:                                               ; preds = %41, %36
  br label %45

45:                                               ; preds = %44, %35
  br label %46

46:                                               ; preds = %45
  %47 = load ptr, ptr %1, align 8, !tbaa !54
  %48 = getelementptr inbounds nuw ptr, ptr %47, i32 1
  store ptr %48, ptr %1, align 8, !tbaa !54
  br label %19, !llvm.loop !56

49:                                               ; preds = %34, %19
  %50 = call i32 (ptr, ...) @curl_mprintf(ptr noundef @.str.20)
  %51 = load ptr, ptr @built_in_protos, align 8, !tbaa !54
  store ptr %51, ptr %1, align 8, !tbaa !54
  br label %52

52:                                               ; preds = %83, %49
  %53 = load ptr, ptr %1, align 8, !tbaa !54
  %54 = load ptr, ptr %53, align 8, !tbaa !9
  %55 = icmp ne ptr %54, null
  br i1 %55, label %56, label %86

56:                                               ; preds = %52
  %57 = load ptr, ptr %1, align 8, !tbaa !54
  %58 = load ptr, ptr %57, align 8, !tbaa !9
  %59 = call i32 @curl_strnequal(ptr noundef %58, ptr noundef @.str.21, i64 noundef 4)
  %60 = icmp ne i32 %59, 0
  br i1 %60, label %61, label %68

61:                                               ; preds = %56
  %62 = load ptr, ptr %1, align 8, !tbaa !54
  %63 = getelementptr inbounds ptr, ptr %62, i64 0
  %64 = load ptr, ptr %63, align 8, !tbaa !9
  %65 = getelementptr inbounds i8, ptr %64, i64 4
  %66 = load i8, ptr %65, align 1, !tbaa !22
  %67 = icmp ne i8 %66, 0
  br i1 %67, label %72, label %68

68:                                               ; preds = %61, %56
  %69 = load ptr, ptr %1, align 8, !tbaa !54
  %70 = load ptr, ptr %69, align 8, !tbaa !9
  %71 = call i32 (ptr, ...) @curl_mprintf(ptr noundef @.str.22, ptr noundef %70)
  br label %72

72:                                               ; preds = %68, %61
  %73 = load ptr, ptr %2, align 8, !tbaa !9
  %74 = icmp ne ptr %73, null
  br i1 %74, label %75, label %82

75:                                               ; preds = %72
  %76 = load ptr, ptr %2, align 8, !tbaa !9
  %77 = load ptr, ptr %1, align 8, !tbaa !54
  %78 = load ptr, ptr %77, align 8, !tbaa !9
  %79 = icmp eq ptr %76, %78
  br i1 %79, label %80, label %82

80:                                               ; preds = %75
  %81 = call i32 (ptr, ...) @curl_mprintf(ptr noundef @.str.23)
  store ptr null, ptr %2, align 8, !tbaa !9
  br label %82

82:                                               ; preds = %80, %75, %72
  br label %83

83:                                               ; preds = %82
  %84 = load ptr, ptr %1, align 8, !tbaa !54
  %85 = getelementptr inbounds nuw ptr, ptr %84, i32 1
  store ptr %85, ptr %1, align 8, !tbaa !54
  br label %52, !llvm.loop !57

86:                                               ; preds = %52
  %87 = call i32 @puts(ptr noundef @.str.24)
  call void @llvm.lifetime.end.p0(i64 8, ptr %2) #9
  br label %88

88:                                               ; preds = %86, %9
  %89 = load ptr, ptr @feature_names, align 8, !tbaa !54
  %90 = getelementptr inbounds ptr, ptr %89, i64 0
  %91 = load ptr, ptr %90, align 8, !tbaa !9
  %92 = icmp ne ptr %91, null
  br i1 %92, label %93, label %129

93:                                               ; preds = %88
  call void @llvm.lifetime.start.p0(i64 8, ptr %3) #9
  call void @llvm.lifetime.start.p0(i64 8, ptr %4) #9
  %94 = load i64, ptr @feature_count, align 8, !tbaa !21
  store i64 %94, ptr %4, align 8, !tbaa !21
  %95 = load i64, ptr %4, align 8, !tbaa !21
  %96 = add i64 %95, 1
  %97 = mul i64 8, %96
  %98 = call noalias ptr @malloc(i64 noundef %97) #10
  store ptr %98, ptr %3, align 8, !tbaa !54
  %99 = load ptr, ptr %3, align 8, !tbaa !54
  %100 = icmp ne ptr %99, null
  br i1 %100, label %101, label %128

101:                                              ; preds = %93
  %102 = load ptr, ptr %3, align 8, !tbaa !54
  %103 = load ptr, ptr @feature_names, align 8, !tbaa !54
  %104 = load i64, ptr @feature_count, align 8, !tbaa !21
  %105 = mul i64 8, %104
  call void @llvm.memcpy.p0.p0.i64(ptr align 1 %102, ptr align 8 %103, i64 %105, i1 false)
  %106 = load i64, ptr @feature_count, align 8, !tbaa !21
  store i64 %106, ptr %4, align 8, !tbaa !21
  %107 = load ptr, ptr %3, align 8, !tbaa !54
  %108 = load i64, ptr %4, align 8, !tbaa !21
  %109 = getelementptr inbounds nuw ptr, ptr %107, i64 %108
  store ptr null, ptr %109, align 8, !tbaa !9
  %110 = load ptr, ptr %3, align 8, !tbaa !54
  %111 = load i64, ptr %4, align 8, !tbaa !21
  call void @qsort(ptr noundef %110, i64 noundef %111, i64 noundef 8, ptr noundef @struplocompare4sort)
  %112 = call i32 (ptr, ...) @curl_mprintf(ptr noundef @.str.25)
  %113 = load ptr, ptr %3, align 8, !tbaa !54
  store ptr %113, ptr %1, align 8, !tbaa !54
  br label %114

114:                                              ; preds = %122, %101
  %115 = load ptr, ptr %1, align 8, !tbaa !54
  %116 = load ptr, ptr %115, align 8, !tbaa !9
  %117 = icmp ne ptr %116, null
  br i1 %117, label %118, label %125

118:                                              ; preds = %114
  %119 = load ptr, ptr %1, align 8, !tbaa !54
  %120 = load ptr, ptr %119, align 8, !tbaa !9
  %121 = call i32 (ptr, ...) @curl_mprintf(ptr noundef @.str.22, ptr noundef %120)
  br label %122

122:                                              ; preds = %118
  %123 = load ptr, ptr %1, align 8, !tbaa !54
  %124 = getelementptr inbounds nuw ptr, ptr %123, i32 1
  store ptr %124, ptr %1, align 8, !tbaa !54
  br label %114, !llvm.loop !58

125:                                              ; preds = %114
  %126 = call i32 @puts(ptr noundef @.str.24)
  %127 = load ptr, ptr %3, align 8, !tbaa !54
  call void @free(ptr noundef %127) #9
  br label %128

128:                                              ; preds = %125, %93
  call void @llvm.lifetime.end.p0(i64 8, ptr %4) #9
  call void @llvm.lifetime.end.p0(i64 8, ptr %3) #9
  br label %129

129:                                              ; preds = %128, %88
  %130 = load ptr, ptr @curlinfo, align 8, !tbaa !59
  %131 = getelementptr inbounds nuw %struct.curl_version_info_data, ptr %130, i32 0, i32 1
  %132 = load ptr, ptr %131, align 8, !tbaa !61
  %133 = call i32 @strcmp(ptr noundef @.str.26, ptr noundef %132) #8
  %134 = icmp ne i32 %133, 0
  br i1 %134, label %135, label %137

135:                                              ; preds = %129
  %136 = call i32 (ptr, ...) @curl_mprintf(ptr noundef @.str.27)
  br label %137

137:                                              ; preds = %135, %129
  call void @llvm.lifetime.end.p0(i64 8, ptr %1) #9
  ret void
}