; Function Attrs: nounwind uwtable
define dso_local void @tool_version_info() local_unnamed_addr #7 {
  %1 = load ptr, ptr @feature_names, align 8, !tbaa !42
  %2 = load ptr, ptr %1, align 8, !tbaa !44
  %.not7.not.i = icmp eq ptr %2, null
  br i1 %.not7.not.i, label %is_debug.exit.thread, label %.lr.ph.i

3:                                                ; preds = %.lr.ph.i
  %4 = getelementptr inbounds nuw i8, ptr %.08.i, i64 8
  %5 = load ptr, ptr %4, align 8, !tbaa !44
  %.not.not.i = icmp eq ptr %5, null
  br i1 %.not.not.i, label %is_debug.exit.thread, label %.lr.ph.i, !llvm.loop !45

.lr.ph.i:                                         ; preds = %0, %3
  %6 = phi ptr [ %5, %3 ], [ %2, %0 ]
  %.08.i = phi ptr [ %4, %3 ], [ %1, %0 ]
  %7 = tail call i32 @curl_strequal(ptr noundef nonnull @.str.88, ptr noundef nonnull %6) #16
  %.not6.not.i = icmp eq i32 %7, 0
  br i1 %.not6.not.i, label %3, label %is_debug.exit

is_debug.exit:                                    ; preds = %.lr.ph.i
  %8 = load ptr, ptr @tool_stderr, align 8, !tbaa !18
  %9 = tail call i32 (ptr, ptr, ...) @curl_mfprintf(ptr noundef %8, ptr noundef nonnull @.str.14) #16
  br label %is_debug.exit.thread

is_debug.exit.thread:                             ; preds = %3, %0, %is_debug.exit
  %10 = tail call ptr @curl_version() #16
  %11 = tail call i32 (ptr, ...) @curl_mprintf(ptr noundef nonnull @.str.15, ptr noundef %10) #16
  %12 = tail call i32 (ptr, ...) @curl_mprintf(ptr noundef nonnull @.str.16, ptr noundef nonnull @.str.17) #16
  %13 = load ptr, ptr @built_in_protos, align 8, !tbaa !42
  %14 = load ptr, ptr %13, align 8, !tbaa !44
  %.not = icmp eq ptr %14, null
  br i1 %.not, label %43, label %.preheader

.preheader:                                       ; preds = %is_debug.exit.thread, %21
  %.047 = phi ptr [ %22, %21 ], [ %13, %is_debug.exit.thread ]
  %.02646 = phi ptr [ %.127, %21 ], [ null, %is_debug.exit.thread ]
  %15 = phi ptr [ %.pr, %21 ], [ %14, %is_debug.exit.thread ]
  %.not34 = icmp eq ptr %.02646, null
  br i1 %.not34, label %19, label %16

16:                                               ; preds = %.preheader
  %17 = tail call i32 @strcmp(ptr noundef nonnull dereferenceable(1) %15, ptr noundef nonnull dereferenceable(5) @.str.18) #15
  %18 = icmp slt i32 %17, 0
  br i1 %18, label %21, label %23

19:                                               ; preds = %.preheader
  %20 = tail call i32 @strcmp(ptr noundef nonnull dereferenceable(1) %15, ptr noundef nonnull dereferenceable(5) @.str.19) #15
  %.not35 = icmp eq i32 %20, 0
  %spec.select = select i1 %.not35, ptr %15, ptr null
  br label %21

21:                                               ; preds = %19, %16
  %.127 = phi ptr [ %15, %16 ], [ %spec.select, %19 ]
  %22 = getelementptr inbounds nuw i8, ptr %.047, i64 8
  %.pr = load ptr, ptr %22, align 8, !tbaa !44
  %.not33 = icmp eq ptr %.pr, null
  br i1 %.not33, label %23, label %.preheader, !llvm.loop !46

23:                                               ; preds = %16, %21
  %.026.lcssa = phi ptr [ %.02646, %16 ], [ %.127, %21 ]
  %24 = tail call i32 (ptr, ...) @curl_mprintf(ptr noundef nonnull @.str.20) #16
  %25 = load ptr, ptr @built_in_protos, align 8, !tbaa !42
  %26 = load ptr, ptr %25, align 8, !tbaa !44
  %.not3648 = icmp eq ptr %26, null
  br i1 %.not3648, label %._crit_edge, label %.lr.ph

.lr.ph:                                           ; preds = %23, %40
  %27 = phi ptr [ %42, %40 ], [ %26, %23 ]
  %.150 = phi ptr [ %41, %40 ], [ %25, %23 ]
  %.22849 = phi ptr [ %.3, %40 ], [ %.026.lcssa, %23 ]
  %28 = tail call i32 @curl_strnequal(ptr noundef nonnull %27, ptr noundef nonnull @.str.21, i64 noundef 4) #16
  %.not42 = icmp eq i32 %28, 0
  %.pre = load ptr, ptr %.150, align 8, !tbaa !44
  br i1 %.not42, label %32, label %29

29:                                               ; preds = %.lr.ph
  %30 = getelementptr inbounds nuw i8, ptr %.pre, i64 4
  %31 = load i8, ptr %30, align 1, !tbaa !17
  %.not43 = icmp eq i8 %31, 0
  br i1 %.not43, label %32, label %34

32:                                               ; preds = %29, %.lr.ph
  %33 = tail call i32 (ptr, ...) @curl_mprintf(ptr noundef nonnull @.str.22, ptr noundef %.pre) #16
  br label %34

34:                                               ; preds = %32, %29
  %.not44 = icmp eq ptr %.22849, null
  br i1 %.not44, label %40, label %35

35:                                               ; preds = %34
  %36 = load ptr, ptr %.150, align 8, !tbaa !44
  %37 = icmp eq ptr %.22849, %36
  br i1 %37, label %38, label %40

38:                                               ; preds = %35
  %39 = tail call i32 (ptr, ...) @curl_mprintf(ptr noundef nonnull @.str.23) #16
  br label %40

40:                                               ; preds = %34, %35, %38
  %.3 = phi ptr [ null, %38 ], [ %.22849, %35 ], [ null, %34 ]
  %41 = getelementptr inbounds nuw i8, ptr %.150, i64 8
  %42 = load ptr, ptr %41, align 8, !tbaa !44
  %.not36 = icmp eq ptr %42, null
  br i1 %.not36, label %._crit_edge, label %.lr.ph, !llvm.loop !47

._crit_edge:                                      ; preds = %40, %23
  %putchar = tail call i32 @putchar(i32 10)
  br label %43

43:                                               ; preds = %._crit_edge, %is_debug.exit.thread
  %44 = load ptr, ptr @feature_names, align 8, !tbaa !42
  %45 = load ptr, ptr %44, align 8, !tbaa !44
  %.not37 = icmp eq ptr %45, null
  br i1 %.not37, label %59, label %46

46:                                               ; preds = %43
  %47 = load i64, ptr @feature_count, align 8, !tbaa !48
  %48 = shl i64 %47, 3
  %49 = add i64 %48, 8
  %50 = tail call noalias ptr @malloc(i64 noundef %49) #17
  %.not38 = icmp eq ptr %50, null
  br i1 %.not38, label %59, label %51

51:                                               ; preds = %46
  tail call void @llvm.memcpy.p0.p0.i64(ptr nonnull align 1 %50, ptr nonnull align 8 %44, i64 %48, i1 false)
  %52 = getelementptr inbounds nuw ptr, ptr %50, i64 %47
  store ptr null, ptr %52, align 8, !tbaa !44
  tail call void @qsort(ptr noundef nonnull %50, i64 noundef %47, i64 noundef 8, ptr noundef nonnull @struplocompare4sort) #16
  %53 = tail call i32 (ptr, ...) @curl_mprintf(ptr noundef nonnull @.str.25) #16
  %54 = load ptr, ptr %50, align 8, !tbaa !44
  %.not3951 = icmp eq ptr %54, null
  br i1 %.not3951, label %._crit_edge55, label %.lr.ph54

.lr.ph54:                                         ; preds = %51, %.lr.ph54
  %55 = phi ptr [ %58, %.lr.ph54 ], [ %54, %51 ]
  %.252 = phi ptr [ %57, %.lr.ph54 ], [ %50, %51 ]
  %56 = tail call i32 (ptr, ...) @curl_mprintf(ptr noundef nonnull @.str.22, ptr noundef nonnull %55) #16
  %57 = getelementptr inbounds nuw i8, ptr %.252, i64 8
  %58 = load ptr, ptr %57, align 8, !tbaa !44
  %.not39 = icmp eq ptr %58, null
  br i1 %.not39, label %._crit_edge55, label %.lr.ph54, !llvm.loop !49

._crit_edge55:                                    ; preds = %.lr.ph54, %51
  %putchar40 = tail call i32 @putchar(i32 10)
  tail call void @free(ptr noundef %50) #16
  br label %59

59:                                               ; preds = %46, %._crit_edge55, %43
  %60 = load ptr, ptr @curlinfo, align 8, !tbaa !50
  %61 = getelementptr inbounds nuw i8, ptr %60, i64 8
  %62 = load ptr, ptr %61, align 8, !tbaa !52
  %63 = tail call i32 @strcmp(ptr noundef nonnull dereferenceable(11) @.str.26, ptr noundef nonnull dereferenceable(1) %62) #15
  %.not41 = icmp eq i32 %63, 0
  br i1 %.not41, label %66, label %64

64:                                               ; preds = %59
  %65 = tail call i32 (ptr, ...) @curl_mprintf(ptr noundef nonnull @.str.27) #16
  br label %66

66:                                               ; preds = %64, %59
  ret void
}